target datalayout = "e-m:e-p270:32:32-p271:32:32-p272:64:64-i64:64-i128:128-f80:128-n8:16:32:64-S128"
target triple = "x86_64-pc-linux-gnu"

%"class.zmq::msg_t" = type { %union.anon }
%union.anon = type { %struct.anon }
%struct.anon = type { ptr, [34 x i8], i8, i8, i32, %"union.zmq::msg_t::group_t" }
%"union.zmq::msg_t::group_t" = type { %struct.anon.1 }
%struct.anon.1 = type { i8, ptr }
%"class.zmq::pipe_t" = type { %"class.zmq::object_t.base", [4 x i8], %"class.zmq::array_item_t.base", [4 x i8], %"class.zmq::array_item_t.base.11", [4 x i8], %"class.zmq::array_item_t.base.13", ptr, ptr, i8, i8, i32, i32, i32, i32, i64, i64, i64, ptr, ptr, i32, i8, [3 x i8], %"struct.zmq::blob_t", i32, i8, [3 x i8], %"struct.zmq::endpoint_uri_pair_t", %"class.zmq::msg_t" }
%"class.zmq::object_t.base" = type <{ ptr, ptr, i32 }>
%"class.zmq::array_item_t.base" = type <{ ptr, i32 }>
%"class.zmq::array_item_t.base.11" = type <{ ptr, i32 }>
%"class.zmq::array_item_t.base.13" = type <{ ptr, i32 }>
%"struct.zmq::blob_t" = type <{ ptr, i64, i8, [7 x i8] }>
%"struct.zmq::endpoint_uri_pair_t" = type <{ %"class.std::__cxx11::basic_string", %"class.std::__cxx11::basic_string", i32, [4 x i8] }>
%"class.std::__cxx11::basic_string" = type { %"struct.std::__cxx11::basic_string<char>::_Alloc_hider", i64, %union.anon.14 }
%"struct.std::__cxx11::basic_string<char>::_Alloc_hider" = type { ptr }
%union.anon.14 = type { i64, [8 x i8] }

; Function Attrs: mustprogress nounwind uwtable
define noundef i32 @_ZN3zmq6pipe_t11compute_lwmEi(i32 noundef %0) #9 align 2 {
  %2 = alloca i32, align 4
  %3 = alloca i32, align 4
  store i32 %0, ptr %2, align 4, !tbaa !25
  call void @llvm.lifetime.start.p0(i64 4, ptr %3) #17
  %4 = load i32, ptr %2, align 4, !tbaa !25
  %5 = add nsw i32 %4, 1
  %6 = sdiv i32 %5, 2
  store i32 %6, ptr %3, align 4, !tbaa !25
  %7 = load i32, ptr %3, align 4, !tbaa !25
  call void @llvm.lifetime.end.p0(i64 4, ptr %3) #17
  ret i32 %7
}

; Function Attrs: inlinehint mustprogress nounwind uwtable
define linkonce_odr noundef nonnull align 4 dereferenceable(4) ptr @_ZSt3maxIiERKT_S2_S2_(ptr noundef nonnull align 4 dereferenceable(4) %0, ptr noundef nonnull align 4 dereferenceable(4) %1) #10 comdat {
  %3 = alloca ptr, align 8
  %4 = alloca ptr, align 8
  %5 = alloca ptr, align 8
  store ptr %0, ptr %4, align 8, !tbaa !11
  store ptr %1, ptr %5, align 8, !tbaa !11
  %6 = load ptr, ptr %4, align 8, !tbaa !11
  %7 = load i32, ptr %6, align 4, !tbaa !25
  %8 = load ptr, ptr %5, align 8, !tbaa !11
  %9 = load i32, ptr %8, align 4, !tbaa !25
  %10 = icmp slt i32 %7, %9
  br i1 %10, label %11, label %13

11:                                               ; preds = %2
  %12 = load ptr, ptr %5, align 8, !tbaa !11
  store ptr %12, ptr %3, align 8
  br label %15

13:                                               ; preds = %2
  %14 = load ptr, ptr %4, align 8, !tbaa !11
  store ptr %14, ptr %3, align 8
  br label %15

15:                                               ; preds = %13, %11
  %16 = load ptr, ptr %3, align 8
  ret ptr %16
}

; Function Attrs: mustprogress uwtable
define void @_ZN3zmq6pipe_t8set_hwmsEii(ptr noundef nonnull align 8 dereferenceable(328) %0, i32 noundef %1, i32 noundef %2) #0 align 2 {
  %4 = alloca ptr, align 8
  %5 = alloca i32, align 4
  %6 = alloca i32, align 4
  %7 = alloca i32, align 4
  %8 = alloca i32, align 4
  %9 = alloca i32, align 4
  %10 = alloca i32, align 4
  store ptr %0, ptr %4, align 8, !tbaa !27
  store i32 %1, ptr %5, align 4, !tbaa !25
  store i32 %2, ptr %6, align 4, !tbaa !25
  %11 = load ptr, ptr %4, align 8
  call void @llvm.lifetime.start.p0(i64 4, ptr %7) #17
  %12 = load i32, ptr %5, align 4, !tbaa !25
  %13 = getelementptr inbounds nuw %"class.zmq::pipe_t", ptr %11, i32 0, i32 13
  call void @llvm.lifetime.start.p0(i64 4, ptr %8) #17
  store i32 0, ptr %8, align 4, !tbaa !25
  %14 = call noundef nonnull align 4 dereferenceable(4) ptr @_ZSt3maxIiERKT_S2_S2_(ptr noundef nonnull align 4 dereferenceable(4) %13, ptr noundef nonnull align 4 dereferenceable(4) %8)
  %15 = load i32, ptr %14, align 4, !tbaa !25
  %16 = add nsw i32 %12, %15
  call void @llvm.lifetime.end.p0(i64 4, ptr %8) #17
  store i32 %16, ptr %7, align 4, !tbaa !25
  call void @llvm.lifetime.start.p0(i64 4, ptr %9) #17
  %17 = load i32, ptr %6, align 4, !tbaa !25
  %18 = getelementptr inbounds nuw %"class.zmq::pipe_t", ptr %11, i32 0, i32 14
  call void @llvm.lifetime.start.p0(i64 4, ptr %10) #17
  store i32 0, ptr %10, align 4, !tbaa !25
  %19 = call noundef nonnull align 4 dereferenceable(4) ptr @_ZSt3maxIiERKT_S2_S2_(ptr noundef nonnull align 4 dereferenceable(4) %18, ptr noundef nonnull align 4 dereferenceable(4) %10)
  %20 = load i32, ptr %19, align 4, !tbaa !25
  %21 = add nsw i32 %17, %20
  call void @llvm.lifetime.end.p0(i64 4, ptr %10) #17
  store i32 %21, ptr %9, align 4, !tbaa !25
  %22 = load i32, ptr %5, align 4, !tbaa !25
  %23 = icmp sle i32 %22, 0
  br i1 %23, label %28, label %24

24:                                               ; preds = %3
  %25 = getelementptr inbounds nuw %"class.zmq::pipe_t", ptr %11, i32 0, i32 13
  %26 = load i32, ptr %25, align 4, !tbaa !121
  %27 = icmp eq i32 %26, 0
  br i1 %27, label %28, label %29

28:                                               ; preds = %24, %3
  store i32 0, ptr %7, align 4, !tbaa !25
  br label %29

29:                                               ; preds = %28, %24
  %30 = load i32, ptr %6, align 4, !tbaa !25
  %31 = icmp sle i32 %30, 0
  br i1 %31, label %36, label %32

32:                                               ; preds = %29
  %33 = getelementptr inbounds nuw %"class.zmq::pipe_t", ptr %11, i32 0, i32 14
  %34 = load i32, ptr %33, align 8, !tbaa !122
  %35 = icmp eq i32 %34, 0
  br i1 %35, label %36, label %37

36:                                               ; preds = %32, %29
  store i32 0, ptr %9, align 4, !tbaa !25
  br label %37

37:                                               ; preds = %36, %32
  %38 = load i32, ptr %7, align 4, !tbaa !25
  %39 = call noundef i32 @_ZN3zmq6pipe_t11compute_lwmEi(i32 noundef %38)
  %40 = getelementptr inbounds nuw %"class.zmq::pipe_t", ptr %11, i32 0, i32 12
  store i32 %39, ptr %40, align 8, !tbaa !120
  %41 = load i32, ptr %9, align 4, !tbaa !25
  %42 = getelementptr inbounds nuw %"class.zmq::pipe_t", ptr %11, i32 0, i32 11
  store i32 %41, ptr %42, align 4, !tbaa !119
  call void @llvm.lifetime.end.p0(i64 4, ptr %9) #17
  call void @llvm.lifetime.end.p0(i64 4, ptr %7) #17
  ret void
}